test_code                                                                                                               PAGE 1
                         1     ; настройка синхронизации по шкиву
  0030                   2     sync_start_mult equ 30h
  0031                   3     sync_half_num equ 31h
  0032                   4     sync_count_num equ 32h
                         5
                         6     ; основные переменные
  0033                   7     ign_num equ 33h
  0034                   8     ign_offset equ 34h
  0035                   9     ign_ctrl equ 35h
  0036                  10     fuel_num equ 36h
  0037                  11     fuel_lo equ 37h
  0038                  12     fuel_hi equ 38h
  0039                  13     adc_num equ 39h
                        14
                        15     ; накопленный период оборота скидывается сюда
  003A                  16     period_lo equ 3Ah
  003B                  17     period_mi equ 3Bh
  003C                  18     period_hi equ 3Ch
                        19
                        20     ; в процессе обмена по шине обновляются временные значения,
                        21     ; которые потом в прерывании заменят собой постоянные
                        22     ; в начале следующей половины оборота
  003D                  23     ign_num_temp equ 3Dh
  003E                  24     ign_offset_temp equ 3Eh
  003F                  25     fuel_num_temp equ 3Fh
                        26
                        27     ; временное хранение состояния GPIO
                        28     ; старший бит меняется прерыванием
  0040                  29     gpio_reg equ 40h
                        30
                        31     ; настройки отсечки
  0041                  32     redline_lo equ 41h
  0042                  33     redline_hi equ 42h
  0043                  34     redline_preset equ 43h
  0044                  35     redline_fuel_count equ 44h
  0045                  36     redline_ign_count equ 45h
                        37
                        38
                        39
                        40
                        41     ; адрес регистра флагов не менять! он связан с перечисленными ниже
                        42     ; прямоадресуемыми битами
  0020                  43     flag_reg equ 20h
  0000                  44     rev_half_flag equ 00h ; в какой половине оборота относительно пропуска находится шкив
  0001                  45     phase_allow_flag equ 01h ; разрешение перехода в фазированный впрыск
  0002                  46     redline_fuel_flag equ 02h ; флаг отсечки
  0003                  47     redline_ign_flag equ 03h ; флаг отсечки
                        48     ; следующие 4 флага доступны для чтения командой статус
  0004                  49     sync_reach_flag equ 04h ; признак вращения движка и достижения синхронизации
  0005                  50     rev_parity_flag equ 05h ; чётный/нечётный оборот для фазированного впрыска
  0006                  51     sync_err_flag equ 06h ; ошибка синхронизации, если число зубов до пропуска не совпало
  0007                  52     comm_err_flag equ 07h ; неверная команда или контрольная сумма при обмене данными
                        53
                        54
                        55
                        56
                        57
                        58
                        59     org 0h
0000 2196               60     ajmp init
                        61
                        62
                        63     org 03h ; Внешнее прерывание INT0
                        64     ; Входы INT0 и INT1 подключены к комплементарным выходам триггера
                        65     ; схемы синхронизации по ДПКВ, поэтому их состояние всегда противоположно.
                        66     ; прерывание вызывается падающим фронтом на выводе INT0,
                        67     ; низкий уровень на нём останавливает таймер 0, и запускает таймер 1
                        68     ; мы можем считать период из остановленного и сбросить его для нового отсчёта
0003 0180               69     ajmp tim_0_rdy_int
                        70
                        71
                        72     org 0bh ;Пpepывaниe oт тaймepa 0
                        73     ; переполнение любого из таймеров обозначает остановку двигателя
                        74     ; и срыв синхронизации, после чего при повторной прокрутке стартером
                        75     ; надо снова ловить пропуск зубов на шкиву. сбрасываем бит синхронизации
                        76     ; останавливаем таймер и пишем в него максимальное значение
000B C28C               77     clr TR0
000D 758CFF             78     mov TH0,#0FFh
0010 8012               79     sjmp tim_ovf_end
                        80
                        81
                        82     org 13h ; Внешнее прерывание INT1
                        83     ; аналогично прерыванию INT0, только здесь обслуживаем таймер 1
0013 0140               84     ajmp tim_1_rdy_int
                        85
                        86
                        87     org 1bh ; Прерывание от таймера 1
                        88     ; аналогично таймеру 0
001B C28E               89     clr TR1
001D 758DFF             90     mov TH1,#0FFh
0020 8002               91     sjmp tim_ovf_end
                        92
                        93
                        94     org 23h ; прерывание от UART
                        95     ; Не используется
0023 32                 96     reti
                        97
                        98
                        99     org 24h
                       100     tim_ovf_end:
0024 C204              101     clr sync_reach_flag ; сбрасываем флаг синхронизации
                       102     ; и обновляем данные
0026 853D33            103     mov ign_num,ign_num_temp
0029 853E34            104     mov ign_offset,ign_offset_temp
002C 853F36            105     mov fuel_num,fuel_num_temp
002F 32                106     reti
                       107
                       108
                       109     org 40h
                       110     ; R0 - полный номер зуба
                       111     ; R1 - "симметричный" номер зуба
                       112     ; R2, R3, R4 - накопитель периода оборота
                       113     ; R5 - общая переменная для расчёта
                       114     ; R6, R7 - предыдущее время между зубами шкива
                       115     tim_1_rdy_int:
0040 C0D0              116     push PSW
0042 C0E0              117     push ACC
0044 C0F0              118     push B
0046 C082              119     push DPL
                       120     ; выбираем первый банк регистров
0048 75D008            121     mov PSW,#08h
                       122     ; прибавляем новое значение к накопителю
                       123     ; на последнем зубе в накопителе будет полный период оборота двигателя
004B EA                124     mov A,R2
004C 258B              125     add A,TL1
004E FA                126     mov R2,A
004F EB                127     mov A,R3
0050 358D              128     addc A,TH1
0052 FB                129     mov R3,A
0053 E4                130     clr A
0054 3C                131     addc A,R4
0055 FC                132     mov R4,A
                       133     ; теперь сравниваем свежее значение с предыдущим для поиска пропущенных зубов
                       134     ; для этого свежее значение умножаем на  уменьшающий коэффициент
0056 E58B              135     mov A,TL1
0058 8530F0            136     mov B,sync_start_mult
005B A4                137     mul AB
005C ADF0              138     mov R5,B
005E E58D              139     mov A,TH1
0060 8530F0            140     mov B,sync_start_mult
0063 A4                141     mul AB
0064 2D                142     add A,R5
0065 F4                143     cpl A
0066 FD                144     mov R5,A ; теперь в R5 инвертированный младший байт
0067 E4                145     clr A
0068 35F0              146     addc A,B
006A F4                147     cpl A
006B C50D              148     xch A,0Dh ; xch R5
                       149     ; а теперь в R5 инвертированный старший байт
                       150     ; а в аккумуляторе инвертированный младший
                       151     ; складываем с младшим предыдущего результата
006D 2E                152     add A,R6 ; сумма нас не интересует, нужен только перенос
006E ED                153     mov A,R5 ; складываем старший инвертированный
                       154     ; со старшим предыдущего измерения
006F 3F                155     addc A,R7 ; и если нет флага переноса - значит текущее измерение
                       156     ; даже с учётом понижающего коэффициента оказалось больше предыдущего результата
                       157     ; а это значит что только что мимо датчика проскочил пропуск на шкиву
                       158     ; и этот результат мы не будем сохранять в качестве предыдущего
0070 5004              159     jnc tim_1_clr
                       160     ; сохраняем значение таймера
0072 AE8B              161     mov R6,TL1
0074 AF8D              162     mov R7,TH1
                       163     tim_1_clr:
0076 758B00            164     mov TL1,#0
0079 758D00            165     mov TH1,#0
007C D28E              166     setb TR1 ; запускаем таймер, если двигатель был остановлен
007E 803E              167     sjmp sync_branch
                       168     ; далее абсолютно аналогичный кусок для второго таймера
                       169     tim_0_rdy_int:
0080 C0D0              170     push PSW
0082 C0E0              171     push ACC
0084 C0F0              172     push B
0086 C082              173     push DPL
0088 75D008            174     mov PSW,#08h
008B EA                175     mov A,R2
008C 258A              176     add A,TL0
008E FA                177     mov R2,A
008F EB                178     mov A,R3
0090 358C              179     addc A,TH0
0092 FB                180     mov R3,A
0093 E4                181     clr A
0094 3C                182     addc A,R4
0095 FC                183     mov R4,A
0096 E58A              184     mov A,TL0
0098 8530F0            185     mov B,sync_start_mult
009B A4                186     mul AB
009C ADF0              187     mov R5,B
009E E58C              188     mov A,TH0
00A0 8530F0            189     mov B,sync_start_mult
00A3 A4                190     mul AB
00A4 2D                191     add A,R5
00A5 F4                192     cpl A
00A6 FD                193     mov R5,A
00A7 E4                194     clr A
00A8 35F0              195     addc A,B
00AA F4                196     cpl A
00AB C50D              197     xch A,0Dh
00AD 2E                198     add A,R6
00AE ED                199     mov A,R5
00AF 3F                200     addc A,R7
00B0 5004              201     jnc tim_0_clr
00B2 AE8A              202     mov R6,TL0
00B4 AF8C              203     mov R7,TH0
                       204     tim_0_clr:
00B6 758A00            205     mov TL0,#0
00B9 758C00            206     mov TH0,#0
00BC D28C              207     setb TR0 ; запускаем таймер, если двигатель был остановлен
                       208     sync_branch:
00BE E8                209     mov A,R0
00BF 4012              210     jc no_sync ; если обнаружили пропуск
00C1 B205              211     cpl rev_parity_flag ; инвертируем бит номера оборота для фазированного режима
                       212     ; ставим флаг синхронизации
00C3 D204              213     setb sync_reach_flag
                       214     ; номер зуба - 0
00C5 7800              215     mov R0,#0h
                       216     ; если номер зуба не равен 0 - сбой синхронизации, прыгаем на его обработчик
00C7 B40002            217     cjne A,#0,sync_fail
00CA 8007              218     sjmp no_sync
                       219     sync_fail:
                       220     ; вероятно поймали короткую импульсную помеху, и сохранённый период между импульсами
                       221     ; очень короткий, пишем максимальный период между импульсами
00CC 7EFF              222     mov R6,#0FFh
00CE 7FFF              223     mov R7,#0FFh
00D0 D206              224     setb sync_err_flag ; ставим флаг ошибки синхронизации
00D2 E4                225     clr A
                       226     no_sync:
                       227     ; получаем "симметричный" номер зуба для разных групп цилиндров (1-4 и 2-3)
                       228     ; находим остаток от деления полного номера зуба на половину зубов шкива (30)
00D3 8531F0            229     mov B,sync_half_num
00D6 84                230     div AB
00D7 A2E0              231     mov C,A.0
00D9 9200              232     mov rev_half_flag,C
00DB E5F0              233     mov A,B
00DD F9                234     mov R1,A
                       235     ; теперь в аккумуляторе "симметричный" номер, а в флаге rev_half_flag
                       236     ; указатель на текущую "половину" (0 - первая половина оборота, 1 - вторая)
00DE 7009              237     jnz ignition_test ; в начале половины оборота происходит обновление переменных
00E0 853D33            238     mov ign_num,ign_num_temp
00E3 853E34            239     mov ign_offset,ign_offset_temp
00E6 853F36            240     mov fuel_num,fuel_num_temp
                       241     ignition_test:
                       242     ; проверяем на какой зуб назначено зажигание, самый приоритетный процесс
00E9 B53337            243     cjne A,ign_num,fuel_test ; если тут...
00EC 200334            244     jb redline_ign_flag,fuel_test ; если не ограничены оборотами...
00EF 300431            245     jnb sync_reach_flag,fuel_test ; и если есть синхронизация...
                       246     ; вычисляем смещение для таймера из актуального периода между зубами шкива
                       247     ; в процессе умножения к результату прибавится единица, чтобы таймер мог правильно
                       248     ; отработать смещение равное 0 (если записать в ВИ53 0 - он будет считать 65536 тактов)
                       249     ; при смещении равном 0 таймер отсчитает 1 такт и выдаст искру
00F2 8534F0            250     mov B,ign_offset
00F5 EE                251     mov A,R6
00F6 A4                252     mul AB
00F7 ADF0              253     mov R5,B
00F9 8534F0            254     mov B,ign_offset
00FC EF                255     mov A,R7
00FD A4                256     mul AB
00FE D3                257     setb C ; +1
00FF 3D                258     addc A,R5
0100 FD                259     mov R5,A
0101 E4                260     clr A
0102 35F0              261     addc A,B
0104 C50D              262     xch A,0Dh
                       263     ; теперь в аккумуляторе младший байт
                       264     ; а в регистре R5 - старший
                       265     ; пишем смещение в таймер
0106 758204            266     mov DPL,#04h
0109 F0                267     movx @DPTR,A
010A ED                268     mov A,R5
010B F0                269     movx @DPTR,A
                       270     ; запись по этому адресу взводит схему разрешения счёта, которая
                       271     ; в свою очередь запускает таймер на ближайшем импульсе с ДПКВ
                       272     ; в конце отсчёта СРАЗУ выдаётся искра и запускается таймер на рассыпухе,
                       273     ; отсчитывающий длительность открытого состояния ключа для поддержания
                       274     ; многоискрового режима работы CDI
                       275     ; *** далее вычисляем маску активации каналов зажигания ***
                       276     ; каналы от младшего бита к старшему активируются последовательно, таким образом
                       277     ; бит 0 - первая половина первого оборота
                       278     ; бит 1 - вторая половина первого оборота
                       279     ; бит 2 - первая половина второго оборота
                       280     ; бит 3 - вторая половина второго оборота
                       281     ; каналы от младшего бита к старшему для ЗМЗ соответствуют цилиндрам 1-2-4-3
010C 74FA              282     mov A,#0FAh ; с самого начала выбраны каналы 0 и 2 (1 и 4 цилиндры)
010E 300002            283     jnb rev_half_flag,ign_mask_noinv ; проверяем, в какой половине оборота мы находимся
0111 640F              284     xrl A,#0Fh ; во второй половине оборота работают цилиндры 2 и 3, инвертируем маску
                       285     ign_mask_noinv:
0113 300106            286     jnb phase_allow_flag,set_ign_mask ; проверяем признак фазированного впрыска
0116 03                287     rr A ; если оборот соответствует 1 или 2 цилиндру, сдвигаем маску вправо,
0117 03                288     rr A ; после этого уехавшая часть маски для 3 и 4 цилиндров в старшей тетраде
0118 300501            289     jnb rev_parity_flag,set_ign_mask ; если это рабочий оборот для 3 и 4 цилиндра
011B C4                290     swap A ; меняем тетрады местами
                       291     set_ign_mask:
                       292     ; теперь в младшей половине аккумулятора сформирована маска
011C 540F              293     anl A,#0Fh ; очищаем старшую тетраду
                       294     ; накладываем на итоговое значение коэффициент предделителя
011E 4535              295     orl A,ign_ctrl ; и маску блокировки каналов зажигания
0120 F590              296     mov P1,A ; пишем в порт
0122 E9                297     mov A,R1
                       298     fuel_test:
0123 B5361C            299     cjne A,fuel_num,adc_hold_test ; пора лить топливо? проверяем, не запрещено ли отсечкой
0126 200219            300     jb redline_fuel_flag,adc_hold_test ; и начинаем хитрую магию с битами
                       301     ; в каждой из двух микросхем таймеров каналы 1 и 2 отведены под индивидуальные форсунки
                       302     ; канал 1 верхний таймер - первая половина первого оборота
                       303     ; канал 2 верхний таймер - вторая половина первого оборота
                       304     ; канал 1 нижний таймер - первая половина второго оборота
                       305     ; канал 2 нижний таймер - вторая половина второго оборота
                       306     ; при этом младшие биты адреса при записи в канал 1 будут 01b, а для канала 2 - 10b
                       307     ; сигналы chip_select идут прямо на адресные линии, таким образом есть возможность писать время
                       308     ; открытия форсунки одновременно в 2 таймера одним действием, для нефазированного режима
                       309     ; формируем адрес, куда будем писать время открытия форсунки:
0129 7401              310     mov A,#01h ; изначально выбран адрес канала 1 микросхемы
012B 300001            311     jnb rev_half_flag,chn_addr_sel ; вторая половина оборота?
012E 23                312     rl A ; простым сдвигом выбираем второй канал таймера
                       313     chn_addr_sel:
                       314     ; сформированный адрес подходит для нефазированного режима, т.к.
                       315     ; запись будет выполнена сразу в оба канала таймера одновременно
012F 300107            316     jnb phase_allow_flag,fuel_chn_write
                       317     ; в фазированном режиме один из каналов надо отключить установкой бита chip_select в адресе
0132 A205              318     mov C,rev_parity_flag
0134 92E3              319     mov ACC.3,C
0136 B3                320     cpl C
0137 92E2              321     mov ACC.2,C
                       322     fuel_chn_write:
                       323     ; итоговый адрес получен, пишем время впрыска
0139 F582              324     mov DPL,A
013B E537              325     mov A,fuel_lo
013D F0                326     movx @DPTR,A
013E E538              327     mov A,fuel_hi
0140 F0                328     movx @DPTR,A
0141 E9                329     mov A,R1
                       330     adc_hold_test:
                       331     ; момент фиксации сигнала ДАД схемой sample&hold
0142 B5390A            332     cjne A,adc_num,int_end
0145 E540              333     mov A,gpio_reg
0147 B2E7              334     cpl ACC.7 ; инвертируем старший бит
0149 F540              335     mov gpio_reg,A
014B 75820C            336     mov DPL,#0Ch
014E F0                337     movx @DPTR,A
                       338     int_end:
                       339     ; увеличиваем номер зуба
014F 08                340     inc R0
0150 E8                341     mov A,R0 ; сравниваем с количеством зубов шкива
0151 B53239            342     cjne A,sync_count_num,tim_int_end
                       343     ; оказалось что это последний зуб, так что процессорного времени
                       344     ; до следующего прерывания более чем достаточно
                       345     ; на последнем зубе ДПКВ сохраняем период оборота
0154 8A3A              346     mov period_lo,R2
0156 8B3B              347     mov period_mi,R3
0158 8C3C              348     mov period_hi,R4
015A E4                349     clr A
015B F8                350     mov R0,A ; обнуляем счётчик зубов
015C FA                351     mov R2,A ; и накопитель периода оборота
015D FB                352     mov R3,A
015E FC                353     mov R4,A
                       354     ; проверяем период для ограничения оборотов
015F E53C              355     mov A,period_hi
0161 7016              356     jnz redline_fuel_check ; старший байт не 0? обороты слишком низкие
0163 C3                357     clr C ; далее вычитаем из периода оборота значение ограничителя
0164 E53A              358     mov A,period_lo
0166 9541              359     subb A,redline_lo
0168 E53B              360     mov A,period_mi
016A 9542              361     subb A,redline_hi
016C 500B              362     jnc redline_fuel_check ; если в конце будет заём (carry), значит период меньше
                       363     ; значения счётчиков по топливу и зажиганию в одном байте в разных тетрадах
016E E543              364     mov A,redline_preset
0170 7945              365     mov R1,#redline_ign_count
0172 D7                366     xchd A,@R1 ; младшая тетрада уходит в счётчик зажигания
0173 C4                367     swap A
0174 7944              368     mov R1,#redline_fuel_count
0176 D7                369     xchd A,@R1 ; старшая в счётчик топлива
0177 D203              370     setb redline_ign_flag ; и сразу отключаем зажигание
                       371     redline_fuel_check:
0179 74FF              372     mov A,#0FFh
017B 2544              373     add A,redline_fuel_count
017D 9202              374     mov redline_fuel_flag,C
017F 5004              375     jnc redline_ign_check
0181 F544              376     mov redline_fuel_count,A
0183 8008              377     sjmp tim_int_end
                       378     redline_ign_check:
0185 2545              379     add A,redline_ign_count
0187 9203              380     mov redline_ign_flag,C
0189 5002              381     jnc tim_int_end
018B F545              382     mov redline_ign_count,A
                       383     tim_int_end:
018D D082              384     pop DPL
018F D0F0              385     pop B
0191 D0E0              386     pop ACC
0193 D0D0              387     pop PSW
0195 32                388     reti
                       389
                       390
                       391
                       392     init:
                       393     ; сюда переходим по сбросу проца
                       394     ; сначала инициализация внешних таймеров
                       395     ; настройка режимов работы
0196 758207            396     mov DPL,#07h ; верхний таймер
0199 7432              397     mov A,#32h ; таймер 0
019B F0                398     movx @DPTR,A
019C 7470              399     mov A,#70h ; таймер 1
019E F0                400     movx @DPTR,A
019F 74B0              401     mov A,#0B0h ; таймер 2
01A1 F0                402     movx @DPTR,A
01A2 75820B            403     mov DPL,#0Bh ; нижний таймер
01A5 7430              404     mov A,#30h ; таймер 0
01A7 F0                405     movx @DPTR,A
01A8 7470              406     mov A,#70h ; таймер 1
01AA F0                407     movx @DPTR,A
01AB 74B0              408     mov A,#0B0h ; таймер 2
01AD F0                409     movx @DPTR,A
01AE 75820B            410     mov DPL,#0Bh
                       411     ; таймеры форсунок настроены в режим 0, сразу после его установки
                       412     ; выходы таймеров переходят в активное состояние, и сбрасываются только
                       413     ; в конце счёта, так что пишем единицу во все эти таймеры
                       414     ; общий выход форсунок
01B1 758208            415     mov DPL,#08h
01B4 7401              416     mov A,#01h
01B6 F0                417     movx @DPTR,A
01B7 7400              418     mov A,#00h
01B9 F0                419     movx @DPTR,A
                       420     ; форсунка 1
01BA 758205            421     mov DPL,#05h
01BD 7401              422     mov A,#01h
01BF F0                423     movx @DPTR,A
01C0 7400              424     mov A,#00h
01C2 F0                425     movx @DPTR,A
                       426     ; форсунка 2
01C3 758206            427     mov DPL,#06h
01C6 7401              428     mov A,#01h
01C8 F0                429     movx @DPTR,A
01C9 7400              430     mov A,#00h
01CB F0                431     movx @DPTR,A
                       432     ; форсунка 3
01CC 758209            433     mov DPL,#09h
01CF 7401              434     mov A,#01h
01D1 F0                435     movx @DPTR,A
01D2 7400              436     mov A,#00h
01D4 F0                437     movx @DPTR,A
                       438     ; форсунка 4
01D5 75820A            439     mov DPL,#0Ah
01D8 7401              440     mov A,#01h
01DA F0                441     movx @DPTR,A
01DB 7400              442     mov A,#00h
01DD F0                443     movx @DPTR,A
                       444
                       445
                       446
                       447     ; инициализация
01DE 75D000            448     mov PSW,#00h ; нулевой банк регистров для фоновой задачи
01E1 75815F            449     mov SP,#5Fh ; настраиваем стек
                       450     ; таймеры в 16-бит режим с блокировкой по входу INT
01E4 758999            451     mov TMOD,#99h
                       452     ; внешние прерывания по падающему фронту, таймеры пока остановлены
                       453     ; они будут включены прерыванием по сигналу ДПКВ
01E7 758805            454     mov TCON,#05h
                       455     ; разрешить внешние прерывания и от таймера,
                       456     ; глобально прерывания запрещены
01EA 75A80F            457     mov IE,#0Fh
                       458     ; выбираем режим UART с фиксированной скоростью
01ED 759813            459     mov SCON,#13h
01F0 758700            460     mov PCON,#00h
                       461     ; предыдущее время между импульсами
01F3 750EFF            462     mov 0Eh,#0FFh
01F6 750FFF            463     mov 0Fh,#0FFh
                       464     ; отладочное
01F9 7530AA            465     mov sync_start_mult,#170 ; порог срабатывания по длительности пропуска
01FC 75311E            466     mov sync_half_num,#30 ; количество половины зубов шкива
01FF 75323A            467     mov sync_count_num,#58 ; полное количество зубов шкива
0202 7533FF            468     mov ign_num,#255
0205 7534FF            469     mov ign_offset,#255
0208 7536FF            470     mov fuel_num,#255
020B 753DFF            471     mov ign_num_temp,#255
020E 753EFF            472     mov ign_offset_temp,#255
0211 753FFF            473     mov fuel_num_temp,#255
0214 753500            474     mov ign_ctrl,#00h ; длительность импульса и маска запрета зажигания
0217 7539FF            475     mov adc_num,#255 ; 15 АЦП меряет прямо перед открытием впускного клапана
021A 753701            476     mov fuel_lo,#01h
021D 753800            477     mov fuel_hi,#00h
0220 752000            478     mov flag_reg,#00h ; DEBUG
0223 754100            479     mov redline_lo,#00h
0226 754200            480     mov redline_hi,#00h
0229 754400            481     mov redline_fuel_count,#00h
022C 754500            482     mov redline_ign_count,#00h
022F 754300            483     mov redline_preset,#00h
0232 D2AF              484     setb EA ; инициализация закончена, включаем прерывания
                       485
                       486
                       487     ; далее цикл ожидания данных в буфере
                       488     ; опрашиваем в цикле сигнал MRDY, активный уровень - 0
                       489     main_loop:
0234 20B4FD            490     jb P3.4,main_loop
                       491     ; по сигналу готовности вытягиваем первый байт
0237 C2B4              492     clr P3.4 ; входная логика на приём
0239 C2B5              493     clr P3.5 ; буфер в последовательный режим
023B C298              494     clr RI ; запускаем процесс...
                       495     rd_1_wait:
023D 3098FD            496     jnb RI,rd_1_wait ; ждём готовности 1 байта
0240 E599              497     mov A,SBUF
                       498     ; ноль - команда статус, оптимизирована максимально, т.к исполняется чаще всего
                       499     ; команда без дополнительных данных, так что остальные байты можно не читать
                       500     ; единственная команда из списка, которая может писать в буфер
0242 6044              501     jz comm_status ; сразу переходим на обработчик
0244 C298              502     clr RI ; запускаем процесс...
                       503     rd_2_wait:
0246 3098FD            504     jnb RI,rd_2_wait
0249 AE99              505     mov R6,SBUF
024B C298              506     clr RI
                       507     rd_3_wait:
024D 3098FD            508     jnb RI,rd_3_wait
0250 AF99              509     mov R7,SBUF
0252 D2B4              510     setb P3.4 ; данные получены, логика в режим приёма
                       511     ; у младших команд достаточно равенства тетрад в коде команды
                       512     ; в нескольких старших командах должно выполняться равенство тетрад
                       513     ; в байтах данных, в итоге двумя последними байтами в буфере передаётся
                       514     ; фактически один байт данных, используется для особо ответственных мест
0254 F5F0              515     mov B,A ; сравниваем тетрады в коде команды
0256 C4                516     swap A
0257 65F0              517     xrl A,B
0259 7029              518     jnz comm_error ; не равны? кривая команда, ставим флаг ошибки и игнорим
025B E5F0              519     mov A,B ; формируем адрес для ветвления по таблице переходов
025D 900264            520     mov DPTR,#comm_jump_table
0260 540F              521     anl A,#0Fh ; нужна лишь младшая тетрада
0262 23                522     rl A ; умноженная на 2, т.к. команды переходов длиной 2 байта
0263 73                523     jmp @A+DPTR
                       524     comm_jump_table:
                       525     ; 00-33
0264 4188              526     ajmp comm_status
0266 41C3              527     ajmp comm_ignition
0268 41DB              528     ajmp comm_sync_fuel
026A 41E5              529     ajmp comm_async_fuel
                       530     ; 44-77
026C 41F2              531     ajmp comm_phase_ctrl
026E 6100              532     ajmp comm_gpio_ctrl
0270 6125              533     ajmp comm_redline_period
0272 612F              534     ajmp comm_redline_ctrl
                       535     ; 88-BB
0274 4184              536     ajmp comm_error
0276 4184              537     ajmp comm_error
0278 4184              538     ajmp comm_error
027A 4184              539     ajmp comm_error
                       540     ; CC-FF
027C 4184              541     ajmp comm_error
027E 6133              542     ajmp comm_sync_count
0280 613E              543     ajmp comm_sync_half
0282 6149              544     ajmp comm_sync_mult
                       545     ; кривые или отсутствующие в списке команды вызывают переход сюда
                       546     comm_error:
0284 D207              547     setb comm_err_flag ; ставим флаг ошибки
0286 8037              548     sjmp buf_exch_end ; и завершаем обмен
                       549     comm_status:
0288 D2B4              550     setb P3.4 ; команда получена, логику на передачу
                       551     ; чтобы никто не обосрал нам данные в процессе их отправки
028A C2AF              552     clr EA ; максимально быстро получим их актуальную копию
028C A83A              553     mov R0,period_lo
028E A93B              554     mov R1,period_mi
0290 AA3C              555     mov R2,period_hi
0292 D2AF              556     setb EA
0294 EA                557     mov A,R2 ; проверка старшего байта периода
0295 54F0              558     anl A,#0F0h ; если в старшей тетраде что-то есть?
0297 6006              559     jz status_write ; значит вылезли за 20 бит
0299 7A0F              560     mov R2,#0Fh ; возвращаем 0x000FFFFF
029B 79FF              561     mov R1,#0FFh
029D 78FF              562     mov R0,#0FFh
                       563     status_write:
029F E520              564     mov A,flag_reg ; подтягиваем регистр флагов
02A1 54F0              565     anl A,#0F0h ; выделяем его старшую половину
02A3 2A                566     add A,R2 ; прибавляем младшую тетраду старшего байта периода
02A4 C299              567     clr TI
02A6 F599              568     mov SBUF,A ; заряжаем на передачу
                       569     wrs_1_wait:
02A8 3099FD            570     jnb TI,wrs_1_wait
02AB E9                571     mov A,R1 ; далее средний байт периода
02AC C299              572     clr TI
02AE F599              573     mov SBUF,A
                       574     wrs_2_wait:
02B0 3099FD            575     jnb TI,wrs_2_wait
02B3 E8                576     mov A,R0 ; и младший
02B4 C299              577     clr TI
02B6 F599              578     mov SBUF,A
                       579     wrs_3_wait:
02B8 3099FD            580     jnb TI,wrs_3_wait
02BB 743F              581     mov A,#3Fh ; сбрасываем однократно устанавливаемые флаги
02BD 5220              582     anl flag_reg,A
                       583     buf_exch_end:
02BF D2B5              584     setb P3.5 ; завершаем обмен по шине, буфер в параллельный режим
02C1 4134              585     ajmp main_loop
                       586
                       587
                       588     comm_ignition:
                       589     ; зажигание, обновить номер зуба и смещение
02C3 C2AF              590     clr EA
02C5 8E3D              591     mov ign_num_temp,R6
02C7 8F3E              592     mov ign_offset_temp,R7
02C9 D2AF              593     setb EA
02CB A28C              594     mov C,TR0 ; проверяем, остановлен двигатель или нет
02CD 828E              595     anl C,TR1 ; по переполнению любого из таймеров
                       596     ; двигатель крутится? значит данные обновятся сами,
02CF 40EE              597     jc buf_exch_end ; можно выходить
02D1 C2AF              598     clr EA ; иначе - обновляем данные ещё и напрямую
02D3 8E33              599     mov ign_num,R6
02D5 8F34              600     mov ign_offset,R7
02D7 D2AF              601     setb EA
02D9 41BF              602     ajmp buf_exch_end
                       603
                       604
                       605     comm_sync_fuel:
                       606     ; время впрыска
02DB C2AF              607     clr EA
02DD 8E38              608     mov fuel_hi,R6
02DF 8F37              609     mov fuel_lo,R7
02E1 D2AF              610     setb EA
02E3 80DA              611     sjmp buf_exch_end
                       612
                       613
                       614     comm_async_fuel:
                       615     ; асинхронное топливо
02E5 C2AF              616     clr EA
02E7 758208            617     mov DPL,#08h
02EA EF                618     mov A,R7
02EB F0                619     movx @DPTR,A
02EC EE                620     mov A,R6
02ED F0                621     movx @DPTR,A
02EE D2AF              622     setb EA
02F0 41BF              623     ajmp buf_exch_end
                       624
                       625
                       626     comm_phase_ctrl:
02F2 8E39              627     mov adc_num,R6 ; обновляем фазу измерения АЦП
02F4 8F3F              628     mov fuel_num_temp,R7 ; и фазу впрыска
02F6 A28C              629     mov C,TR0 ; проверяем, остановлен двигатель или нет
02F8 828E              630     anl C,TR1 ; по переполнению любого из таймеров
                       631     ; двигатель крутится? значит данные обновятся сами,
02FA 40C3              632     jc buf_exch_end ; можно выходить
02FC 8F36              633     mov fuel_num,R7 ; иначе - обновляем напрямую
02FE 41BF              634     ajmp buf_exch_end
                       635
                       636
                       637     comm_gpio_ctrl:
0300 EE                638     mov A,R6
0301 30E702            639     jnb ACC.7,phase_inv_skip
0304 B205              640     cpl rev_parity_flag
                       641     phase_inv_skip:
0306 A2E6              642     mov C,ACC.6
0308 9201              643     mov phase_allow_flag,C
030A 543F              644     anl A,#3Fh ; обновляем GPIO
030C C2AF              645     clr EA
030E 5340C0            646     anl gpio_reg,#0C0h
0311 4240              647     orl gpio_reg,A
0313 D2AF              648     setb EA
0315 8F35              649     mov ign_ctrl,R7 ; и регистр управления зажиганием
0317 A28C              650     mov C,TR0 ; проверяем, остановлен двигатель или нет
0319 828E              651     anl C,TR1 ; по переполнению любого из таймеров
                       652     ; двигатель крутится? значит данные обновятся сами,
031B 40A2              653     jc buf_exch_end ; можно выходить
031D E540              654     mov A,gpio_reg
031F 75820C            655     mov DPL,#0Ch
0322 F0                656     movx @DPTR,A
0323 41BF              657     ajmp buf_exch_end
                       658
                       659
                       660     comm_redline_period:
0325 C2AF              661     clr EA
0327 8E42              662     mov redline_hi,R6
0329 8F41              663     mov redline_lo,R7
032B D2AF              664     setb EA
032D 41BF              665     ajmp buf_exch_end
                       666
                       667
                       668     comm_redline_ctrl:
032F 8F43              669     mov redline_preset,R7
0331 41BF              670     ajmp buf_exch_end
                       671
                       672
                       673     comm_sync_count:
0333 8EF0              674     mov B,R6
0335 EF                675     mov A,R7
0336 F4                676     cpl A
0337 B5F01A            677     cjne A,B,data_check_fail
033A 8E32              678     mov sync_count_num,R6
033C 41BF              679     ajmp buf_exch_end
                       680
                       681     comm_sync_half:
033E 8EF0              682     mov B,R6
0340 EF                683     mov A,R7
0341 F4                684     cpl A
0342 B5F00F            685     cjne A,B,data_check_fail
0345 8E31              686     mov sync_half_num,R6
0347 41BF              687     ajmp buf_exch_end
                       688
                       689     comm_sync_mult:
0349 8EF0              690     mov B,R6
034B EF                691     mov A,R7
034C F4                692     cpl A
034D B5F004            693     cjne A,B,data_check_fail
0350 8E30              694     mov sync_start_mult,R6
0352 41BF              695     ajmp buf_exch_end
                       696
                       697     data_check_fail:
0354 4184              698     ajmp comm_error
                       699
                       700
****WARNING:Missing`END'directive
ASSEMBLY COMPLETE, NO ERRORS FOUND, 1 WARNING


ERROR SUMMARY:
Line 700, WARNING:Missing`END'directive

SYMBOL TABLE:
??MCU_8051_IDE . . . . . . . . . . .  N  NUMB  8051H  NOT USED
??VERSION. . . . . . . . . . . . . .  N  NUMB  0149H  NOT USED
AC . . . . . . . . . . . . . . . . .  B  ADDR  00D6H  NOT USED
ACC. . . . . . . . . . . . . . . . .  D  ADDR  00E0H
ACSR . . . . . . . . . . . . . . . .  D  ADDR  0097H  NOT USED
ADCF . . . . . . . . . . . . . . . .  D  ADDR  00F6H  NOT USED
ADCLK. . . . . . . . . . . . . . . .  D  ADDR  00F2H  NOT USED
ADCON. . . . . . . . . . . . . . . .  D  ADDR  00F3H  NOT USED
ADC_HOLD_TEST. . . . . . . . . . . .  C  ADDR  0142H
ADC_NUM. . . . . . . . . . . . . . .  N  NUMB  0039H
ADDH . . . . . . . . . . . . . . . .  D  ADDR  00F5H  NOT USED
ADDL . . . . . . . . . . . . . . . .  D  ADDR  00F4H  NOT USED
AUXR . . . . . . . . . . . . . . . .  D  ADDR  008EH  NOT USED
AUXR1. . . . . . . . . . . . . . . .  D  ADDR  00A2H  NOT USED
B. . . . . . . . . . . . . . . . . .  D  ADDR  00F0H
BDRCON . . . . . . . . . . . . . . .  D  ADDR  009BH  NOT USED
BDRCON_1 . . . . . . . . . . . . . .  D  ADDR  009CH  NOT USED
BRL. . . . . . . . . . . . . . . . .  D  ADDR  009AH  NOT USED
BUF_EXCH_END . . . . . . . . . . . .  C  ADDR  02BFH
CCAP0H . . . . . . . . . . . . . . .  D  ADDR  00FAH  NOT USED
CCAP0L . . . . . . . . . . . . . . .  D  ADDR  00EAH  NOT USED
CCAP1H . . . . . . . . . . . . . . .  D  ADDR  00FBH  NOT USED
CCAP1L . . . . . . . . . . . . . . .  D  ADDR  00EBH  NOT USED
CCAP2H . . . . . . . . . . . . . . .  D  ADDR  00FCH  NOT USED
CCAP3H . . . . . . . . . . . . . . .  D  ADDR  00FDH  NOT USED
CCAP4H . . . . . . . . . . . . . . .  D  ADDR  00FEH  NOT USED
CCAPL2H. . . . . . . . . . . . . . .  D  ADDR  00FCH  NOT USED
CCAPL2L. . . . . . . . . . . . . . .  D  ADDR  00ECH  NOT USED
CCAPL3H. . . . . . . . . . . . . . .  D  ADDR  00FDH  NOT USED
CCAPL3L. . . . . . . . . . . . . . .  D  ADDR  00EDH  NOT USED
CCAPL4H. . . . . . . . . . . . . . .  D  ADDR  00FEH  NOT USED
CCAPL4L. . . . . . . . . . . . . . .  D  ADDR  00EEH  NOT USED
CCAPM0 . . . . . . . . . . . . . . .  D  ADDR  00DAH  NOT USED
CCAPM1 . . . . . . . . . . . . . . .  D  ADDR  00DBH  NOT USED
CCAPM2 . . . . . . . . . . . . . . .  D  ADDR  00DCH  NOT USED
CCAPM3 . . . . . . . . . . . . . . .  D  ADDR  00DDH  NOT USED
CCAPM4 . . . . . . . . . . . . . . .  D  ADDR  00DEH  NOT USED
CCF0 . . . . . . . . . . . . . . . .  B  ADDR  00D8H  NOT USED
CCF1 . . . . . . . . . . . . . . . .  B  ADDR  00D9H  NOT USED
CCF2 . . . . . . . . . . . . . . . .  B  ADDR  00DAH  NOT USED
CCF3 . . . . . . . . . . . . . . . .  B  ADDR  00DBH  NOT USED
CCF4 . . . . . . . . . . . . . . . .  B  ADDR  00DCH  NOT USED
CCON . . . . . . . . . . . . . . . .  D  ADDR  00D8H  NOT USED
CFINT. . . . . . . . . . . . . . . .  C  ADDR  0033H  NOT USED
CH . . . . . . . . . . . . . . . . .  D  ADDR  00F9H  NOT USED
CHN_ADDR_SEL . . . . . . . . . . . .  C  ADDR  012FH
CKCON. . . . . . . . . . . . . . . .  D  ADDR  008FH  NOT USED
CKCON0 . . . . . . . . . . . . . . .  D  ADDR  008FH  NOT USED
CKRL . . . . . . . . . . . . . . . .  D  ADDR  0097H  NOT USED
CKSEL. . . . . . . . . . . . . . . .  D  ADDR  0085H  NOT USED
CL . . . . . . . . . . . . . . . . .  D  ADDR  00E9H  NOT USED
CLKREG . . . . . . . . . . . . . . .  D  ADDR  008FH  NOT USED
CMOD . . . . . . . . . . . . . . . .  D  ADDR  00D9H  NOT USED
COMM_ASYNC_FUEL. . . . . . . . . . .  C  ADDR  02E5H
COMM_ERROR . . . . . . . . . . . . .  C  ADDR  0284H
COMM_ERR_FLAG. . . . . . . . . . . .  N  NUMB  0007H
COMM_GPIO_CTRL . . . . . . . . . . .  C  ADDR  0300H
COMM_IGNITION. . . . . . . . . . . .  C  ADDR  02C3H
COMM_JUMP_TABLE. . . . . . . . . . .  C  ADDR  0264H
COMM_PHASE_CTRL. . . . . . . . . . .  C  ADDR  02F2H
COMM_REDLINE_CTRL. . . . . . . . . .  C  ADDR  032FH
COMM_REDLINE_PERIOD. . . . . . . . .  C  ADDR  0325H
COMM_STATUS. . . . . . . . . . . . .  C  ADDR  0288H
COMM_SYNC_COUNT. . . . . . . . . . .  C  ADDR  0333H
COMM_SYNC_FUEL . . . . . . . . . . .  C  ADDR  02DBH
COMM_SYNC_HALF . . . . . . . . . . .  C  ADDR  033EH
COMM_SYNC_MULT . . . . . . . . . . .  C  ADDR  0349H
CPRL2. . . . . . . . . . . . . . . .  B  ADDR  00C8H  NOT USED
CR . . . . . . . . . . . . . . . . .  B  ADDR  00DEH  NOT USED
CT2. . . . . . . . . . . . . . . . .  B  ADDR  00C9H  NOT USED
CY . . . . . . . . . . . . . . . . .  B  ADDR  00D7H  NOT USED
DATA_CHECK_FAIL. . . . . . . . . . .  C  ADDR  0354H
DP0H . . . . . . . . . . . . . . . .  D  ADDR  0083H  NOT USED
DP0L . . . . . . . . . . . . . . . .  D  ADDR  0082H  NOT USED
DP1H . . . . . . . . . . . . . . . .  D  ADDR  0085H  NOT USED
DP1L . . . . . . . . . . . . . . . .  D  ADDR  0084H  NOT USED
DPH. . . . . . . . . . . . . . . . .  D  ADDR  0083H  NOT USED
DPL. . . . . . . . . . . . . . . . .  D  ADDR  0082H
EA . . . . . . . . . . . . . . . . .  B  ADDR  00AFH
EC . . . . . . . . . . . . . . . . .  B  ADDR  00AEH  NOT USED
EECON. . . . . . . . . . . . . . . .  D  ADDR  0096H  NOT USED
ES . . . . . . . . . . . . . . . . .  B  ADDR  00ACH  NOT USED
ET0. . . . . . . . . . . . . . . . .  B  ADDR  00A9H  NOT USED
ET1. . . . . . . . . . . . . . . . .  B  ADDR  00ABH  NOT USED
ET2. . . . . . . . . . . . . . . . .  B  ADDR  00ADH  NOT USED
EX0. . . . . . . . . . . . . . . . .  B  ADDR  00A8H  NOT USED
EX1. . . . . . . . . . . . . . . . .  B  ADDR  00AAH  NOT USED
EXEN2. . . . . . . . . . . . . . . .  B  ADDR  00CBH  NOT USED
EXF2 . . . . . . . . . . . . . . . .  B  ADDR  00CEH  NOT USED
EXTI0. . . . . . . . . . . . . . . .  C  ADDR  0003H  NOT USED
EXTI1. . . . . . . . . . . . . . . .  C  ADDR  0013H  NOT USED
F0 . . . . . . . . . . . . . . . . .  B  ADDR  00D5H  NOT USED
FE . . . . . . . . . . . . . . . . .  B  ADDR  009FH  NOT USED
FLAG_REG . . . . . . . . . . . . . .  N  NUMB  0020H
FUEL_CHN_WRITE . . . . . . . . . . .  C  ADDR  0139H
FUEL_HI. . . . . . . . . . . . . . .  N  NUMB  0038H
FUEL_LO. . . . . . . . . . . . . . .  N  NUMB  0037H
FUEL_NUM . . . . . . . . . . . . . .  N  NUMB  0036H
FUEL_NUM_TEMP. . . . . . . . . . . .  N  NUMB  003FH
FUEL_TEST. . . . . . . . . . . . . .  C  ADDR  0123H
GPIO_REG . . . . . . . . . . . . . .  N  NUMB  0040H
IE . . . . . . . . . . . . . . . . .  D  ADDR  00A8H
IE0. . . . . . . . . . . . . . . . .  B  ADDR  0089H  NOT USED
IE1. . . . . . . . . . . . . . . . .  B  ADDR  008BH  NOT USED
IGNITION_TEST. . . . . . . . . . . .  C  ADDR  00E9H
IGN_CTRL . . . . . . . . . . . . . .  N  NUMB  0035H
IGN_MASK_NOINV . . . . . . . . . . .  C  ADDR  0113H
IGN_NUM. . . . . . . . . . . . . . .  N  NUMB  0033H
IGN_NUM_TEMP . . . . . . . . . . . .  N  NUMB  003DH
IGN_OFFSET . . . . . . . . . . . . .  N  NUMB  0034H
IGN_OFFSET_TEMP. . . . . . . . . . .  N  NUMB  003EH
INIT . . . . . . . . . . . . . . . .  C  ADDR  0196H
INT0 . . . . . . . . . . . . . . . .  B  ADDR  00B2H  NOT USED
INT1 . . . . . . . . . . . . . . . .  B  ADDR  00B3H  NOT USED
INT_END. . . . . . . . . . . . . . .  C  ADDR  014FH
IP . . . . . . . . . . . . . . . . .  D  ADDR  00B8H  NOT USED
IPH. . . . . . . . . . . . . . . . .  D  ADDR  00B7H  NOT USED
IPH0 . . . . . . . . . . . . . . . .  D  ADDR  00B7H  NOT USED
IPH1 . . . . . . . . . . . . . . . .  D  ADDR  00B3H  NOT USED
IPL0 . . . . . . . . . . . . . . . .  D  ADDR  00B8H  NOT USED
IPL1 . . . . . . . . . . . . . . . .  D  ADDR  00B2H  NOT USED
IT0. . . . . . . . . . . . . . . . .  B  ADDR  0088H  NOT USED
IT1. . . . . . . . . . . . . . . . .  B  ADDR  008AH  NOT USED
KBE. . . . . . . . . . . . . . . . .  D  ADDR  009DH  NOT USED
KBF. . . . . . . . . . . . . . . . .  D  ADDR  009EH  NOT USED
KBLS . . . . . . . . . . . . . . . .  D  ADDR  009CH  NOT USED
MAIN_LOOP. . . . . . . . . . . . . .  C  ADDR  0234H
NO_SYNC. . . . . . . . . . . . . . .  C  ADDR  00D3H
OSCCON . . . . . . . . . . . . . . .  D  ADDR  0086H  NOT USED
OV . . . . . . . . . . . . . . . . .  B  ADDR  00D2H  NOT USED
P. . . . . . . . . . . . . . . . . .  B  ADDR  00D0H  NOT USED
P0 . . . . . . . . . . . . . . . . .  D  ADDR  0080H  NOT USED
P1 . . . . . . . . . . . . . . . . .  D  ADDR  0090H
P1M1 . . . . . . . . . . . . . . . .  D  ADDR  00D4H  NOT USED
P1M2 . . . . . . . . . . . . . . . .  D  ADDR  00E2H  NOT USED
P2 . . . . . . . . . . . . . . . . .  D  ADDR  00A0H  NOT USED
P3 . . . . . . . . . . . . . . . . .  D  ADDR  00B0H
P3M1 . . . . . . . . . . . . . . . .  D  ADDR  00D5H  NOT USED
P3M2 . . . . . . . . . . . . . . . .  D  ADDR  00E3H  NOT USED
P4 . . . . . . . . . . . . . . . . .  D  ADDR  00C0H  NOT USED
P4M1 . . . . . . . . . . . . . . . .  D  ADDR  00D6H  NOT USED
P4M2 . . . . . . . . . . . . . . . .  D  ADDR  00E4H  NOT USED
P5 . . . . . . . . . . . . . . . . .  D  ADDR  00E8H  NOT USED
PC . . . . . . . . . . . . . . . . .  B  ADDR  00BEH  NOT USED
PCON . . . . . . . . . . . . . . . .  D  ADDR  0087H
PERIOD_HI. . . . . . . . . . . . . .  N  NUMB  003CH
PERIOD_LO. . . . . . . . . . . . . .  N  NUMB  003AH
PERIOD_MI. . . . . . . . . . . . . .  N  NUMB  003BH
PHASE_ALLOW_FLAG . . . . . . . . . .  N  NUMB  0001H
PHASE_INV_SKIP . . . . . . . . . . .  C  ADDR  0306H
PPCL . . . . . . . . . . . . . . . .  B  ADDR  00BEH  NOT USED
PS . . . . . . . . . . . . . . . . .  B  ADDR  00BCH  NOT USED
PSL. . . . . . . . . . . . . . . . .  B  ADDR  00BCH  NOT USED
PSW. . . . . . . . . . . . . . . . .  D  ADDR  00D0H
PT0. . . . . . . . . . . . . . . . .  B  ADDR  00B9H  NOT USED
PT0L . . . . . . . . . . . . . . . .  B  ADDR  00B9H  NOT USED
PT1. . . . . . . . . . . . . . . . .  B  ADDR  00BBH  NOT USED
PT1L . . . . . . . . . . . . . . . .  B  ADDR  00BBH  NOT USED
PT2. . . . . . . . . . . . . . . . .  B  ADDR  00BDH  NOT USED
PT2L . . . . . . . . . . . . . . . .  B  ADDR  00BDH  NOT USED
PX0. . . . . . . . . . . . . . . . .  B  ADDR  00B8H  NOT USED
PX0L . . . . . . . . . . . . . . . .  B  ADDR  00B8H  NOT USED
PX1. . . . . . . . . . . . . . . . .  B  ADDR  00BAH  NOT USED
PX1L . . . . . . . . . . . . . . . .  B  ADDR  00BAH  NOT USED
RB8. . . . . . . . . . . . . . . . .  B  ADDR  009AH  NOT USED
RCAP2H . . . . . . . . . . . . . . .  D  ADDR  00CBH  NOT USED
RCAP2L . . . . . . . . . . . . . . .  D  ADDR  00CAH  NOT USED
RCLK . . . . . . . . . . . . . . . .  B  ADDR  00CDH  NOT USED
RD . . . . . . . . . . . . . . . . .  B  ADDR  00B7H  NOT USED
RD_1_WAIT. . . . . . . . . . . . . .  C  ADDR  023DH
RD_2_WAIT. . . . . . . . . . . . . .  C  ADDR  0246H
RD_3_WAIT. . . . . . . . . . . . . .  C  ADDR  024DH
REDLINE_FUEL_CHECK . . . . . . . . .  C  ADDR  0179H
REDLINE_FUEL_COUNT . . . . . . . . .  N  NUMB  0044H
REDLINE_FUEL_FLAG. . . . . . . . . .  N  NUMB  0002H
REDLINE_HI . . . . . . . . . . . . .  N  NUMB  0042H
REDLINE_IGN_CHECK. . . . . . . . . .  C  ADDR  0185H
REDLINE_IGN_COUNT. . . . . . . . . .  N  NUMB  0045H
REDLINE_IGN_FLAG . . . . . . . . . .  N  NUMB  0003H
REDLINE_LO . . . . . . . . . . . . .  N  NUMB  0041H
REDLINE_PRESET . . . . . . . . . . .  N  NUMB  0043H
REN. . . . . . . . . . . . . . . . .  B  ADDR  009CH  NOT USED
RESET. . . . . . . . . . . . . . . .  C  ADDR  0000H  NOT USED
REV_HALF_FLAG. . . . . . . . . . . .  N  NUMB  0000H
REV_PARITY_FLAG. . . . . . . . . . .  N  NUMB  0005H
RI . . . . . . . . . . . . . . . . .  B  ADDR  0098H
RS0. . . . . . . . . . . . . . . . .  B  ADDR  00D3H  NOT USED
RS1. . . . . . . . . . . . . . . . .  B  ADDR  00D4H  NOT USED
RXD. . . . . . . . . . . . . . . . .  B  ADDR  00B0H  NOT USED
SADDR. . . . . . . . . . . . . . . .  D  ADDR  00A9H  NOT USED
SADDR_0. . . . . . . . . . . . . . .  D  ADDR  00A9H  NOT USED
SADDR_1. . . . . . . . . . . . . . .  D  ADDR  00AAH  NOT USED
SADEN. . . . . . . . . . . . . . . .  D  ADDR  00B9H  NOT USED
SADEN_0. . . . . . . . . . . . . . .  D  ADDR  00B9H  NOT USED
SADEN_1. . . . . . . . . . . . . . .  D  ADDR  00BAH  NOT USED
SBUF . . . . . . . . . . . . . . . .  D  ADDR  0099H
SCON . . . . . . . . . . . . . . . .  D  ADDR  0098H
SET_IGN_MASK . . . . . . . . . . . .  C  ADDR  011CH
SINT . . . . . . . . . . . . . . . .  C  ADDR  0023H  NOT USED
SM0. . . . . . . . . . . . . . . . .  B  ADDR  009FH  NOT USED
SM1. . . . . . . . . . . . . . . . .  B  ADDR  009EH  NOT USED
SM2. . . . . . . . . . . . . . . . .  B  ADDR  009DH  NOT USED
SP . . . . . . . . . . . . . . . . .  D  ADDR  0081H
SPCON. . . . . . . . . . . . . . . .  D  ADDR  00C3H  NOT USED
SPCR . . . . . . . . . . . . . . . .  D  ADDR  00D5H  NOT USED
SPDAT. . . . . . . . . . . . . . . .  D  ADDR  00C5H  NOT USED
SPDR . . . . . . . . . . . . . . . .  D  ADDR  0086H  NOT USED
SPSR . . . . . . . . . . . . . . . .  D  ADDR  00AAH  NOT USED
SPSTA. . . . . . . . . . . . . . . .  D  ADDR  00C4H  NOT USED
STATUS_WRITE . . . . . . . . . . . .  C  ADDR  029FH
SYNC_BRANCH. . . . . . . . . . . . .  C  ADDR  00BEH
SYNC_COUNT_NUM . . . . . . . . . . .  N  NUMB  0032H
SYNC_ERR_FLAG. . . . . . . . . . . .  N  NUMB  0006H
SYNC_FAIL. . . . . . . . . . . . . .  C  ADDR  00CCH
SYNC_HALF_NUM. . . . . . . . . . . .  N  NUMB  0031H
SYNC_REACH_FLAG. . . . . . . . . . .  N  NUMB  0004H
SYNC_START_MULT. . . . . . . . . . .  N  NUMB  0030H
T0 . . . . . . . . . . . . . . . . .  B  ADDR  00B4H  NOT USED
T1 . . . . . . . . . . . . . . . . .  B  ADDR  00B5H  NOT USED
T2CON. . . . . . . . . . . . . . . .  D  ADDR  00C8H  NOT USED
T2MOD. . . . . . . . . . . . . . . .  D  ADDR  00C9H  NOT USED
TB8. . . . . . . . . . . . . . . . .  B  ADDR  009BH  NOT USED
TCLK . . . . . . . . . . . . . . . .  B  ADDR  00CCH  NOT USED
TCON . . . . . . . . . . . . . . . .  D  ADDR  0088H
TF0. . . . . . . . . . . . . . . . .  B  ADDR  008DH  NOT USED
TF1. . . . . . . . . . . . . . . . .  B  ADDR  008FH  NOT USED
TF2. . . . . . . . . . . . . . . . .  B  ADDR  00CFH  NOT USED
TH0. . . . . . . . . . . . . . . . .  D  ADDR  008CH
TH1. . . . . . . . . . . . . . . . .  D  ADDR  008DH
TH2. . . . . . . . . . . . . . . . .  D  ADDR  00CDH  NOT USED
TI . . . . . . . . . . . . . . . . .  B  ADDR  0099H
TIMER0 . . . . . . . . . . . . . . .  C  ADDR  000BH  NOT USED
TIMER1 . . . . . . . . . . . . . . .  C  ADDR  001BH  NOT USED
TIMER2 . . . . . . . . . . . . . . .  C  ADDR  002BH  NOT USED
TIM_0_CLR. . . . . . . . . . . . . .  C  ADDR  00B6H
TIM_0_RDY_INT. . . . . . . . . . . .  C  ADDR  0080H
TIM_1_CLR. . . . . . . . . . . . . .  C  ADDR  0076H
TIM_1_RDY_INT. . . . . . . . . . . .  C  ADDR  0040H
TIM_INT_END. . . . . . . . . . . . .  C  ADDR  018DH
TIM_OVF_END. . . . . . . . . . . . .  C  ADDR  0024H
TL0. . . . . . . . . . . . . . . . .  D  ADDR  008AH
TL1. . . . . . . . . . . . . . . . .  D  ADDR  008BH
TL2. . . . . . . . . . . . . . . . .  D  ADDR  00CCH  NOT USED
TMOD . . . . . . . . . . . . . . . .  D  ADDR  0089H
TR0. . . . . . . . . . . . . . . . .  B  ADDR  008CH
TR1. . . . . . . . . . . . . . . . .  B  ADDR  008EH
TR2. . . . . . . . . . . . . . . . .  B  ADDR  00CAH  NOT USED
TXD. . . . . . . . . . . . . . . . .  B  ADDR  00B1H  NOT USED
WDTCON . . . . . . . . . . . . . . .  D  ADDR  00A7H  NOT USED
WDTPRG . . . . . . . . . . . . . . .  D  ADDR  00A7H  NOT USED
WDTRST . . . . . . . . . . . . . . .  D  ADDR  00A6H  NOT USED
WR . . . . . . . . . . . . . . . . .  B  ADDR  00B6H  NOT USED
WRS_1_WAIT . . . . . . . . . . . . .  C  ADDR  02A8H
WRS_2_WAIT . . . . . . . . . . . . .  C  ADDR  02B0H
WRS_3_WAIT . . . . . . . . . . . . .  C  ADDR  02B8H